; Function Attrs: nounwind uwtable
define void @Llb_ManFlowGetObjSet(ptr readnone captures(none) %0, ptr noundef readonly captures(none) %1, i32 noundef %2, i32 noundef %3, ptr noundef captures(none) initializes((4, 8)) %4) local_unnamed_addr #0 {
  %6 = getelementptr inbounds nuw i8, ptr %4, i64 4
  store i32 0, ptr %6, align 4, !tbaa !10
  %7 = icmp sgt i32 %3, 0
  br i1 %7, label %.lr.ph, label %._crit_edge

.lr.ph:                                           ; preds = %5
  %8 = getelementptr i8, ptr %1, i64 4
  %9 = getelementptr i8, ptr %1, i64 8
  %.phi.trans.insert.i = getelementptr inbounds nuw i8, ptr %4, i64 8
  %.pre = load i32, ptr %4, align 8, !tbaa !3
  br label %10

10:                                               ; preds = %.lr.ph, %Vec_PtrPush.exit
  %11 = phi i32 [ %.pre, %.lr.ph ], [ %39, %Vec_PtrPush.exit ]
  %12 = phi i32 [ 0, %.lr.ph ], [ %42, %Vec_PtrPush.exit ]
  %.010 = phi i32 [ 0, %.lr.ph ], [ %45, %Vec_PtrPush.exit ]
  %13 = add nsw i32 %.010, %2
  %.val9 = load i32, ptr %8, align 4, !tbaa !10
  %14 = srem i32 %13, %.val9
  %.val = load ptr, ptr %9, align 8, !tbaa !9
  %15 = sext i32 %14 to i64
  %16 = getelementptr inbounds ptr, ptr %.val, i64 %15
  %17 = load ptr, ptr %16, align 8, !tbaa !11
  %18 = icmp eq i32 %12, %11
  br i1 %18, label %19, label %.Vec_PtrGrow.exit11_crit_edge.i

.Vec_PtrGrow.exit11_crit_edge.i:                  ; preds = %10
  %.pre.i = load ptr, ptr %.phi.trans.insert.i, align 8, !tbaa !9
  br label %Vec_PtrPush.exit

19:                                               ; preds = %10
  %20 = icmp slt i32 %11, 16
  br i1 %20, label %21, label %28

21:                                               ; preds = %19
  %22 = load ptr, ptr %.phi.trans.insert.i, align 8, !tbaa !9
  %.not9.i.i = icmp eq ptr %22, null
  br i1 %.not9.i.i, label %25, label %23

23:                                               ; preds = %21
  %24 = tail call dereferenceable_or_null(128) ptr @realloc(ptr noundef nonnull %22, i64 noundef 128) #21
  br label %Vec_PtrGrow.exit.i

25:                                               ; preds = %21
  %26 = tail call noalias dereferenceable_or_null(128) ptr @malloc(i64 noundef 128) #20
  br label %Vec_PtrGrow.exit.i

Vec_PtrGrow.exit.i:                               ; preds = %25, %23
  %27 = phi ptr [ %24, %23 ], [ %26, %25 ]
  store ptr %27, ptr %.phi.trans.insert.i, align 8, !tbaa !9
  store i32 16, ptr %4, align 8, !tbaa !3
  br label %Vec_PtrPush.exit

28:                                               ; preds = %19
  %29 = shl nuw nsw i32 %11, 1
  %30 = load ptr, ptr %.phi.trans.insert.i, align 8, !tbaa !9
  %.not9.i10.i = icmp eq ptr %30, null
  %31 = zext nneg i32 %29 to i64
  %32 = shl nuw nsw i64 %31, 3
  br i1 %.not9.i10.i, label %35, label %33

33:                                               ; preds = %28
  %34 = tail call ptr @realloc(ptr noundef nonnull %30, i64 noundef %32) #21
  br label %37

35:                                               ; preds = %28
  %36 = tail call noalias ptr @malloc(i64 noundef %32) #20
  br label %37

37:                                               ; preds = %35, %33
  %38 = phi ptr [ %34, %33 ], [ %36, %35 ]
  store ptr %38, ptr %.phi.trans.insert.i, align 8, !tbaa !9
  store i32 %29, ptr %4, align 8, !tbaa !3
  br label %Vec_PtrPush.exit

Vec_PtrPush.exit:                                 ; preds = %.Vec_PtrGrow.exit11_crit_edge.i, %Vec_PtrGrow.exit.i, %37
  %39 = phi i32 [ %11, %.Vec_PtrGrow.exit11_crit_edge.i ], [ %29, %37 ], [ 16, %Vec_PtrGrow.exit.i ]
  %40 = phi ptr [ %.pre.i, %.Vec_PtrGrow.exit11_crit_edge.i ], [ %38, %37 ], [ %27, %Vec_PtrGrow.exit.i ]
  %41 = load i32, ptr %6, align 4, !tbaa !10
  %42 = add nsw i32 %41, 1
  store i32 %42, ptr %6, align 4, !tbaa !10
  %43 = sext i32 %41 to i64
  %44 = getelementptr inbounds ptr, ptr %40, i64 %43
  store ptr %17, ptr %44, align 8, !tbaa !11
  %45 = add nuw nsw i32 %.010, 1
  %exitcond.not = icmp eq i32 %45, %3
  br i1 %exitcond.not, label %._crit_edge, label %10, !llvm.loop !91

._crit_edge:                                      ; preds = %Vec_PtrPush.exit, %5
  ret void
}